target datalayout = "e-m:e-p270:32:32-p271:32:32-p272:64:64-i64:64-i128:128-f80:128-n8:16:32:64-S128"
target triple = "x86_64-unknown-linux-gnu"

%"class.icu_75::UnicodeString" = type { %"class.icu_75::Replaceable", %"union.icu_75::UnicodeString::StackBufferOrFields" }
%"class.icu_75::Replaceable" = type { %"class.icu_75::UObject" }
%"class.icu_75::UObject" = type { ptr }
%"union.icu_75::UnicodeString::StackBufferOrFields" = type { %struct.anon.0, [32 x i8] }
%struct.anon.0 = type { i16, i32, i32, ptr }
%"class.icu_75::TransliteratorSpec" = type { [8 x i8], %"class.icu_75::UnicodeString", %"class.icu_75::UnicodeString", %"class.icu_75::UnicodeString", %"class.icu_75::UnicodeString", i8, i8, ptr }

; Function Attrs: mustprogress nounwind uwtable
define linkonce_odr void @_ZN6icu_7513UnicodeString14setShortLengthEi(ptr noundef nonnull align 8 dereferenceable(64) %this, i32 noundef %len) #0 comdat align 2 {
entry:
  %this.addr = alloca ptr, align 8
  %len.addr = alloca i32, align 4
  store ptr %this, ptr %this.addr, align 8
  store i32 %len, ptr %len.addr, align 4
  %this1 = load ptr, ptr %this.addr, align 8
  %fUnion = getelementptr inbounds %"class.icu_75::UnicodeString", ptr %this1, i32 0, i32 1
  %fLengthAndFlags = getelementptr inbounds %struct.anon.0, ptr %fUnion, i32 0, i32 0
  %0 = load i16, ptr %fLengthAndFlags, align 8
  %conv = sext i16 %0 to i32
  %and = and i32 %conv, 31
  %1 = load i32, ptr %len.addr, align 4
  %shl = shl i32 %1, 5
  %or = or i32 %and, %shl
  %conv2 = trunc i32 %or to i16
  %fUnion3 = getelementptr inbounds %"class.icu_75::UnicodeString", ptr %this1, i32 0, i32 1
  %fLengthAndFlags4 = getelementptr inbounds %struct.anon.0, ptr %fUnion3, i32 0, i32 0
  store i16 %conv2, ptr %fLengthAndFlags4, align 8
  ret void
}

; Function Attrs: mustprogress nounwind uwtable
define linkonce_odr noundef i32 @_ZNK6icu_7513UnicodeString14getShortLengthEv(ptr noundef nonnull align 8 dereferenceable(64) %this) #0 comdat align 2 {
entry:
  %this.addr = alloca ptr, align 8
  store ptr %this, ptr %this.addr, align 8
  %this1 = load ptr, ptr %this.addr, align 8
  %fUnion = getelementptr inbounds %"class.icu_75::UnicodeString", ptr %this1, i32 0, i32 1
  %fLengthAndFlags = getelementptr inbounds %struct.anon.0, ptr %fUnion, i32 0, i32 0
  %0 = load i16, ptr %fLengthAndFlags, align 8
  %conv = sext i16 %0 to i32
  %shr = ashr i32 %conv, 5
  ret i32 %shr
}

; Function Attrs: mustprogress nounwind uwtable
define linkonce_odr noundef signext i8 @_ZNK6icu_7513UnicodeString14hasShortLengthEv(ptr noundef nonnull align 8 dereferenceable(64) %this) #0 comdat align 2 {
entry:
  %this.addr = alloca ptr, align 8
  store ptr %this, ptr %this.addr, align 8
  %this1 = load ptr, ptr %this.addr, align 8
  %fUnion = getelementptr inbounds %"class.icu_75::UnicodeString", ptr %this1, i32 0, i32 1
  %fLengthAndFlags = getelementptr inbounds %struct.anon.0, ptr %fUnion, i32 0, i32 0
  %0 = load i16, ptr %fLengthAndFlags, align 8
  %conv = sext i16 %0 to i32
  %cmp = icmp sge i32 %conv, 0
  %conv2 = zext i1 %cmp to i8
  ret i8 %conv2
}

; Function Attrs: mustprogress uwtable
define linkonce_odr void @_ZN6icu_7513UnicodeString9setLengthEi(ptr noundef nonnull align 8 dereferenceable(64) %this, i32 noundef %len) #1 comdat align 2 {
entry:
  %this.addr = alloca ptr, align 8
  %len.addr = alloca i32, align 4
  store ptr %this, ptr %this.addr, align 8
  store i32 %len, ptr %len.addr, align 4
  %this1 = load ptr, ptr %this.addr, align 8
  %0 = load i32, ptr %len.addr, align 4
  %cmp = icmp sle i32 %0, 1023
  br i1 %cmp, label %if.then, label %if.else

if.then:                                          ; preds = %entry
  %1 = load i32, ptr %len.addr, align 4
  call void @_ZN6icu_7513UnicodeString14setShortLengthEi(ptr noundef nonnull align 8 dereferenceable(64) %this1, i32 noundef %1)
  br label %if.end

if.else:                                          ; preds = %entry
  %fUnion = getelementptr inbounds %"class.icu_75::UnicodeString", ptr %this1, i32 0, i32 1
  %fLengthAndFlags = getelementptr inbounds %struct.anon.0, ptr %fUnion, i32 0, i32 0
  %2 = load i16, ptr %fLengthAndFlags, align 8
  %conv = sext i16 %2 to i32
  %or = or i32 %conv, 65504
  %conv2 = trunc i32 %or to i16
  store i16 %conv2, ptr %fLengthAndFlags, align 8
  %3 = load i32, ptr %len.addr, align 4
  %fUnion3 = getelementptr inbounds %"class.icu_75::UnicodeString", ptr %this1, i32 0, i32 1
  %fLength = getelementptr inbounds %struct.anon.0, ptr %fUnion3, i32 0, i32 1
  store i32 %3, ptr %fLength, align 4
  br label %if.end

if.end:                                           ; preds = %if.else, %if.then
  ret void
}

; Function Attrs: mustprogress nounwind uwtable
define linkonce_odr noundef signext i8 @_ZNK6icu_7513UnicodeString7isBogusEv(ptr noundef nonnull align 8 dereferenceable(64) %this) #0 comdat align 2 {
entry:
  %this.addr = alloca ptr, align 8
  store ptr %this, ptr %this.addr, align 8
  %this1 = load ptr, ptr %this.addr, align 8
  %fUnion = getelementptr inbounds %"class.icu_75::UnicodeString", ptr %this1, i32 0, i32 1
  %fLengthAndFlags = getelementptr inbounds %struct.anon.0, ptr %fUnion, i32 0, i32 0
  %0 = load i16, ptr %fLengthAndFlags, align 8
  %conv = sext i16 %0 to i32
  %and = and i32 %conv, 1
  %conv2 = trunc i32 %and to i8
  ret i8 %conv2
}

; Function Attrs: mustprogress uwtable
define linkonce_odr noundef i32 @_ZNK6icu_7513UnicodeString6lengthEv(ptr noundef nonnull align 8 dereferenceable(64) %this) #1 comdat align 2 {
entry:
  %this.addr = alloca ptr, align 8
  store ptr %this, ptr %this.addr, align 8
  %this1 = load ptr, ptr %this.addr, align 8
  %call = call noundef signext i8 @_ZNK6icu_7513UnicodeString14hasShortLengthEv(ptr noundef nonnull align 8 dereferenceable(64) %this1)
  %tobool = icmp ne i8 %call, 0
  br i1 %tobool, label %cond.true, label %cond.false

cond.true:                                        ; preds = %entry
  %call2 = call noundef i32 @_ZNK6icu_7513UnicodeString14getShortLengthEv(ptr noundef nonnull align 8 dereferenceable(64) %this1)
  br label %cond.end

cond.false:                                       ; preds = %entry
  %fUnion = getelementptr inbounds %"class.icu_75::UnicodeString", ptr %this1, i32 0, i32 1
  %fLength = getelementptr inbounds %struct.anon.0, ptr %fUnion, i32 0, i32 1
  %0 = load i32, ptr %fLength, align 4
  br label %cond.end

cond.end:                                         ; preds = %cond.false, %cond.true
  %cond = phi i32 [ %call2, %cond.true ], [ %0, %cond.false ]
  ret i32 %cond
}

; Function Attrs: mustprogress uwtable
define linkonce_odr noundef signext i8 @_ZN6icu_7513UnicodeString8truncateEi(ptr noundef nonnull align 8 dereferenceable(64) %this, i32 noundef %targetLength) #1 comdat align 2 {
entry:
  %retval = alloca i8, align 1
  %this.addr = alloca ptr, align 8
  %targetLength.addr = alloca i32, align 4
  store ptr %this, ptr %this.addr, align 8
  store i32 %targetLength, ptr %targetLength.addr, align 4
  %this1 = load ptr, ptr %this.addr, align 8
  %call = call noundef signext i8 @_ZNK6icu_7513UnicodeString7isBogusEv(ptr noundef nonnull align 8 dereferenceable(64) %this1)
  %tobool = icmp ne i8 %call, 0
  br i1 %tobool, label %land.lhs.true, label %if.else

land.lhs.true:                                    ; preds = %entry
  %0 = load i32, ptr %targetLength.addr, align 4
  %cmp = icmp eq i32 %0, 0
  br i1 %cmp, label %if.then, label %if.else

if.then:                                          ; preds = %land.lhs.true
  call void @_ZN6icu_7513UnicodeString7unBogusEv(ptr noundef nonnull align 8 dereferenceable(64) %this1)
  store i8 0, ptr %retval, align 1
  br label %return

if.else:                                          ; preds = %land.lhs.true, %entry
  %1 = load i32, ptr %targetLength.addr, align 4
  %call2 = call noundef i32 @_ZNK6icu_7513UnicodeString6lengthEv(ptr noundef nonnull align 8 dereferenceable(64) %this1)
  %cmp3 = icmp ult i32 %1, %call2
  br i1 %cmp3, label %if.then4, label %if.else5

if.then4:                                         ; preds = %if.else
  %2 = load i32, ptr %targetLength.addr, align 4
  call void @_ZN6icu_7513UnicodeString9setLengthEi(ptr noundef nonnull align 8 dereferenceable(64) %this1, i32 noundef %2)
  store i8 1, ptr %retval, align 1
  br label %return

if.else5:                                         ; preds = %if.else
  store i8 0, ptr %retval, align 1
  br label %return

return:                                           ; preds = %if.else5, %if.then4, %if.then
  %3 = load i8, ptr %retval, align 1
  ret i8 %3
}

; Function Attrs: mustprogress uwtable
define linkonce_odr noundef i32 @_ZNK6icu_7513UnicodeString11lastIndexOfEDs(ptr noundef nonnull align 8 dereferenceable(64) %this, i16 noundef zeroext %c) #1 comdat align 2 {
entry:
  %this.addr = alloca ptr, align 8
  %c.addr = alloca i16, align 2
  store ptr %this, ptr %this.addr, align 8
  store i16 %c, ptr %c.addr, align 2
  %this1 = load ptr, ptr %this.addr, align 8
  %0 = load i16, ptr %c.addr, align 2
  %call = call noundef i32 @_ZNK6icu_7513UnicodeString6lengthEv(ptr noundef nonnull align 8 dereferenceable(64) %this1)
  %call2 = call noundef i32 @_ZNK6icu_7513UnicodeString13doLastIndexOfEDsii(ptr noundef nonnull align 8 dereferenceable(64) %this1, i16 noundef zeroext %0, i32 noundef 0, i32 noundef %call)
  ret i32 %call2
}

; Function Attrs: mustprogress uwtable
define void @_ZN6icu_7518TransliteratorSpec9setupNextEv(ptr noundef nonnull align 8 dereferenceable(280) %this) #1 align 2 {
entry:
  %this.addr = alloca ptr, align 8
  %i = alloca i32, align 4
  store ptr %this, ptr %this.addr, align 8
  %this1 = load ptr, ptr %this.addr, align 8
  %isNextLocale = getelementptr inbounds %"class.icu_75::TransliteratorSpec", ptr %this1, i32 0, i32 6
  store i8 0, ptr %isNextLocale, align 1
  %isSpecLocale = getelementptr inbounds %"class.icu_75::TransliteratorSpec", ptr %this1, i32 0, i32 5
  %0 = load i8, ptr %isSpecLocale, align 8
  %tobool = icmp ne i8 %0, 0
  br i1 %tobool, label %if.then, label %if.else10

if.then:                                          ; preds = %entry
  %spec = getelementptr inbounds %"class.icu_75::TransliteratorSpec", ptr %this1, i32 0, i32 2
  %nextSpec = getelementptr inbounds %"class.icu_75::TransliteratorSpec", ptr %this1, i32 0, i32 3
  %call = call noundef nonnull align 8 dereferenceable(64) ptr @_ZN6icu_7513UnicodeStringaSERKS0_(ptr noundef nonnull align 8 dereferenceable(64) %nextSpec, ptr noundef nonnull align 8 dereferenceable(64) %spec)
  %nextSpec2 = getelementptr inbounds %"class.icu_75::TransliteratorSpec", ptr %this1, i32 0, i32 3
  %call3 = call noundef i32 @_ZNK6icu_7513UnicodeString11lastIndexOfEDs(ptr noundef nonnull align 8 dereferenceable(64) %nextSpec2, i16 noundef zeroext 95)
  store i32 %call3, ptr %i, align 4
  %1 = load i32, ptr %i, align 4
  %cmp = icmp sgt i32 %1, 0
  br i1 %cmp, label %if.then4, label %if.else

if.then4:                                         ; preds = %if.then
  %nextSpec5 = getelementptr inbounds %"class.icu_75::TransliteratorSpec", ptr %this1, i32 0, i32 3
  %2 = load i32, ptr %i, align 4
  %call6 = call noundef signext i8 @_ZN6icu_7513UnicodeString8truncateEi(ptr noundef nonnull align 8 dereferenceable(64) %nextSpec5, i32 noundef %2)
  %isNextLocale7 = getelementptr inbounds %"class.icu_75::TransliteratorSpec", ptr %this1, i32 0, i32 6
  store i8 1, ptr %isNextLocale7, align 1
  br label %if.end

if.else:                                          ; preds = %if.then
  %scriptName = getelementptr inbounds %"class.icu_75::TransliteratorSpec", ptr %this1, i32 0, i32 4
  %nextSpec8 = getelementptr inbounds %"class.icu_75::TransliteratorSpec", ptr %this1, i32 0, i32 3
  %call9 = call noundef nonnull align 8 dereferenceable(64) ptr @_ZN6icu_7513UnicodeStringaSERKS0_(ptr noundef nonnull align 8 dereferenceable(64) %nextSpec8, ptr noundef nonnull align 8 dereferenceable(64) %scriptName)
  br label %if.end

if.end:                                           ; preds = %if.else, %if.then4
  br label %if.end13

if.else10:                                        ; preds = %entry
  %nextSpec11 = getelementptr inbounds %"class.icu_75::TransliteratorSpec", ptr %this1, i32 0, i32 3
  %call12 = call noundef signext i8 @_ZN6icu_7513UnicodeString8truncateEi(ptr noundef nonnull align 8 dereferenceable(64) %nextSpec11, i32 noundef 0)
  br label %if.end13

if.end13:                                         ; preds = %if.else10, %if.end
  ret void
}