; Function Attrs: mustprogress uwtable
define void @_ZN6icu_7518TransliteratorSpec9setupNextEv(ptr noundef nonnull align 8 dereferenceable(280) %this) local_unnamed_addr #1 align 2 {
entry:
  %isNextLocale = getelementptr inbounds i8, ptr %this, i64 265
  store i8 0, ptr %isNextLocale, align 1
  %isSpecLocale = getelementptr inbounds i8, ptr %this, i64 264
  %0 = load i8, ptr %isSpecLocale, align 8
  %tobool.not = icmp eq i8 %0, 0
  br i1 %tobool.not, label %if.else10, label %if.then

if.then:                                          ; preds = %entry
  %spec = getelementptr inbounds i8, ptr %this, i64 72
  %nextSpec = getelementptr inbounds i8, ptr %this, i64 136
  %call = tail call noundef nonnull align 8 dereferenceable(64) ptr @_ZN6icu_7513UnicodeStringaSERKS0_(ptr noundef nonnull align 8 dereferenceable(64) %nextSpec, ptr noundef nonnull align 8 dereferenceable(64) %spec)
  %fUnion.i.i.i = getelementptr inbounds i8, ptr %this, i64 144
  %1 = load i16, ptr %fUnion.i.i.i, align 8
  %cmp.i.i.i = icmp slt i16 %1, 0
  %2 = ashr i16 %1, 5
  %shr.i.i.i = sext i16 %2 to i32
  %fLength.i.i = getelementptr inbounds i8, ptr %this, i64 148
  %3 = load i32, ptr %fLength.i.i, align 4
  %cond.i.i = select i1 %cmp.i.i.i, i32 %3, i32 %shr.i.i.i
  %call2.i = tail call noundef i32 @_ZNK6icu_7513UnicodeString13doLastIndexOfEDsii(ptr noundef nonnull align 8 dereferenceable(64) %nextSpec, i16 noundef zeroext 95, i32 noundef 0, i32 noundef %cond.i.i)
  %cmp = icmp sgt i32 %call2.i, 0
  br i1 %cmp, label %if.else.i, label %if.else

if.else.i:                                        ; preds = %if.then
  %4 = load i16, ptr %fUnion.i.i.i, align 8
  %cmp.i.i.i2 = icmp slt i16 %4, 0
  %5 = ashr i16 %4, 5
  %shr.i.i.i3 = sext i16 %5 to i32
  %6 = load i32, ptr %fLength.i.i, align 4
  %cond.i.i5 = select i1 %cmp.i.i.i2, i32 %6, i32 %shr.i.i.i3
  %cmp3.i = icmp ugt i32 %cond.i.i5, %call2.i
  br i1 %cmp3.i, label %if.then4.i, label %_ZN6icu_7513UnicodeString8truncateEi.exit

if.then4.i:                                       ; preds = %if.else.i
  %cmp.i.i = icmp ult i32 %call2.i, 1024
  br i1 %cmp.i.i, label %if.then.i.i, label %if.else.i.i

if.then.i.i:                                      ; preds = %if.then4.i
  %7 = and i16 %4, 31
  %len.tr.i.i.i = trunc i32 %call2.i to i16
  %8 = shl nuw nsw i16 %len.tr.i.i.i, 5
  %conv2.i.i.i = or disjoint i16 %7, %8
  store i16 %conv2.i.i.i, ptr %fUnion.i.i.i, align 8
  br label %_ZN6icu_7513UnicodeString8truncateEi.exit

if.else.i.i:                                      ; preds = %if.then4.i
  %or.i.i = or i16 %4, -32
  store i16 %or.i.i, ptr %fUnion.i.i.i, align 8
  store i32 %call2.i, ptr %fLength.i.i, align 4
  br label %_ZN6icu_7513UnicodeString8truncateEi.exit

_ZN6icu_7513UnicodeString8truncateEi.exit:        ; preds = %if.else.i, %if.then.i.i, %if.else.i.i
  store i8 1, ptr %isNextLocale, align 1
  br label %if.end13

if.else:                                          ; preds = %if.then
  %scriptName = getelementptr inbounds i8, ptr %this, i64 200
  %call9 = tail call noundef nonnull align 8 dereferenceable(64) ptr @_ZN6icu_7513UnicodeStringaSERKS0_(ptr noundef nonnull align 8 dereferenceable(64) %nextSpec, ptr noundef nonnull align 8 dereferenceable(64) %scriptName)
  br label %if.end13

if.else10:                                        ; preds = %entry
  %fUnion.i.i6 = getelementptr inbounds i8, ptr %this, i64 144
  %9 = load i16, ptr %fUnion.i.i6, align 8
  %conv2.i5.i7 = and i16 %9, 1
  %tobool.i8.not = icmp eq i16 %conv2.i5.i7, 0
  br i1 %tobool.i8.not, label %if.else.i9, label %if.then.i18

if.then.i18:                                      ; preds = %if.else10
  %nextSpec11 = getelementptr inbounds i8, ptr %this, i64 136
  tail call void @_ZN6icu_7513UnicodeString7unBogusEv(ptr noundef nonnull align 8 dereferenceable(64) %nextSpec11)
  br label %if.end13

if.else.i9:                                       ; preds = %if.else10
  %cmp.i.i.i10 = icmp slt i16 %9, 0
  %10 = ashr i16 %9, 5
  %shr.i.i.i11 = sext i16 %10 to i32
  %fLength.i.i12 = getelementptr inbounds i8, ptr %this, i64 148
  %11 = load i32, ptr %fLength.i.i12, align 4
  %cond.i.i13 = select i1 %cmp.i.i.i10, i32 %11, i32 %shr.i.i.i11
  %cmp3.i14.not = icmp eq i32 %cond.i.i13, 0
  br i1 %cmp3.i14.not, label %if.end13, label %if.then4.i16

if.then4.i16:                                     ; preds = %if.else.i9
  %12 = and i16 %9, 30
  store i16 %12, ptr %fUnion.i.i6, align 8
  br label %if.end13

if.end13:                                         ; preds = %if.then4.i16, %if.else.i9, %if.then.i18, %_ZN6icu_7513UnicodeString8truncateEi.exit, %if.else
  ret void
}